; Function Attrs: nounwind uwtable
define ptr @l_Lean_ParseImports_moduleIdent___lambda__1(ptr noundef %0, ptr noundef %1, ptr noundef %2) local_unnamed_addr #0 {
  %4 = getelementptr inbounds nuw i8, ptr %2, i64 34
  %5 = load i8, ptr %4, align 1, !tbaa !15
  %6 = getelementptr inbounds nuw i8, ptr %2, i64 33
  %7 = load i8, ptr %6, align 1, !tbaa !15
  tail call void @lean_inc_heartbeat() #6
  %8 = tail call noalias ptr @mi_malloc_small(i64 noundef 24) #6
  %9 = icmp eq ptr %8, null
  br i1 %9, label %10, label %lean_alloc_ctor.exit

10:                                               ; preds = %3
  tail call void @lean_internal_panic_out_of_memory() #7
  unreachable

lean_alloc_ctor.exit:                             ; preds = %3
  %11 = getelementptr inbounds nuw i8, ptr %8, i64 4
  %12 = getelementptr inbounds nuw i8, ptr %8, i64 16
  store i64 0, ptr %12, align 8, !tbaa !16
  store i32 1, ptr %8, align 4, !tbaa !4
  store i32 65560, ptr %11, align 4
  %13 = getelementptr inbounds nuw i8, ptr %8, i64 8
  store ptr %0, ptr %13, align 8, !tbaa !10
  store i8 %5, ptr %12, align 1, !tbaa !15
  %14 = getelementptr inbounds nuw i8, ptr %8, i64 17
  store i8 %7, ptr %14, align 1, !tbaa !15
  %15 = tail call ptr @l_Lean_ParseImports_State_pushImport(ptr noundef nonnull %8, ptr noundef nonnull %2)
  %16 = tail call ptr @l_Lean_ParseImports_whitespace(ptr noundef %1, ptr noundef %15)
  ret ptr %16
}